target datalayout = "e-m:e-p270:32:32-p271:32:32-p272:64:64-i64:64-i128:128-f80:128-n8:16:32:64-S128"
target triple = "x86_64-pc-linux-gnu"

; Function Attrs: nounwind uwtable
define i32 @stbtt__CompareUTF8toUTF16_bigendian_prefix(ptr noundef %0, i32 noundef %1, ptr noundef %2, i32 noundef %3) #0 {
  %5 = alloca i32, align 4
  %6 = alloca ptr, align 8
  %7 = alloca i32, align 4
  %8 = alloca ptr, align 8
  %9 = alloca i32, align 4
  %10 = alloca i32, align 4
  %11 = alloca i16, align 2
  %12 = alloca i32, align 4
  %13 = alloca i32, align 4
  %14 = alloca i16, align 2
  store ptr %0, ptr %6, align 8, !tbaa !25
  store i32 %1, ptr %7, align 4, !tbaa !14
  store ptr %2, ptr %8, align 8, !tbaa !25
  store i32 %3, ptr %9, align 4, !tbaa !14
  call void @llvm.lifetime.start.p0(i64 4, ptr %10) #8
  store i32 0, ptr %10, align 4, !tbaa !14
  br label %15

15:                                               ; preds = %255, %4
  %16 = load i32, ptr %9, align 4, !tbaa !14
  %17 = icmp ne i32 %16, 0
  br i1 %17, label %18, label %256

18:                                               ; preds = %15
  call void @llvm.lifetime.start.p0(i64 2, ptr %11) #8
  %19 = load ptr, ptr %8, align 8, !tbaa !25
  %20 = getelementptr inbounds i8, ptr %19, i64 0
  %21 = load i8, ptr %20, align 1, !tbaa !13
  %22 = zext i8 %21 to i32
  %23 = mul nsw i32 %22, 256
  %24 = load ptr, ptr %8, align 8, !tbaa !25
  %25 = getelementptr inbounds i8, ptr %24, i64 1
  %26 = load i8, ptr %25, align 1, !tbaa !13
  %27 = zext i8 %26 to i32
  %28 = add nsw i32 %23, %27
  %29 = trunc i32 %28 to i16
  store i16 %29, ptr %11, align 2, !tbaa !45
  %30 = load i16, ptr %11, align 2, !tbaa !45
  %31 = zext i16 %30 to i32
  %32 = icmp slt i32 %31, 128
  br i1 %32, label %33, label %51

33:                                               ; preds = %18
  %34 = load i32, ptr %10, align 4, !tbaa !14
  %35 = load i32, ptr %7, align 4, !tbaa !14
  %36 = icmp sge i32 %34, %35
  br i1 %36, label %37, label %38

37:                                               ; preds = %33
  store i32 -1, ptr %5, align 4
  store i32 1, ptr %12, align 4
  br label %253

38:                                               ; preds = %33
  %39 = load ptr, ptr %6, align 8, !tbaa !25
  %40 = load i32, ptr %10, align 4, !tbaa !14
  %41 = add nsw i32 %40, 1
  store i32 %41, ptr %10, align 4, !tbaa !14
  %42 = sext i32 %40 to i64
  %43 = getelementptr inbounds i8, ptr %39, i64 %42
  %44 = load i8, ptr %43, align 1, !tbaa !13
  %45 = zext i8 %44 to i32
  %46 = load i16, ptr %11, align 2, !tbaa !45
  %47 = zext i16 %46 to i32
  %48 = icmp ne i32 %45, %47
  br i1 %48, label %49, label %50

49:                                               ; preds = %38
  store i32 -1, ptr %5, align 4
  store i32 1, ptr %12, align 4
  br label %253

50:                                               ; preds = %38
  br label %248

51:                                               ; preds = %18
  %52 = load i16, ptr %11, align 2, !tbaa !45
  %53 = zext i16 %52 to i32
  %54 = icmp slt i32 %53, 2048
  br i1 %54, label %55, label %90

55:                                               ; preds = %51
  %56 = load i32, ptr %10, align 4, !tbaa !14
  %57 = add nsw i32 %56, 1
  %58 = load i32, ptr %7, align 4, !tbaa !14
  %59 = icmp sge i32 %57, %58
  br i1 %59, label %60, label %61

60:                                               ; preds = %55
  store i32 -1, ptr %5, align 4
  store i32 1, ptr %12, align 4
  br label %253

61:                                               ; preds = %55
  %62 = load ptr, ptr %6, align 8, !tbaa !25
  %63 = load i32, ptr %10, align 4, !tbaa !14
  %64 = add nsw i32 %63, 1
  store i32 %64, ptr %10, align 4, !tbaa !14
  %65 = sext i32 %63 to i64
  %66 = getelementptr inbounds i8, ptr %62, i64 %65
  %67 = load i8, ptr %66, align 1, !tbaa !13
  %68 = zext i8 %67 to i32
  %69 = load i16, ptr %11, align 2, !tbaa !45
  %70 = zext i16 %69 to i32
  %71 = ashr i32 %70, 6
  %72 = add nsw i32 192, %71
  %73 = icmp ne i32 %68, %72
  br i1 %73, label %74, label %75

74:                                               ; preds = %61
  store i32 -1, ptr %5, align 4
  store i32 1, ptr %12, align 4
  br label %253

75:                                               ; preds = %61
  %76 = load ptr, ptr %6, align 8, !tbaa !25
  %77 = load i32, ptr %10, align 4, !tbaa !14
  %78 = add nsw i32 %77, 1
  store i32 %78, ptr %10, align 4, !tbaa !14
  %79 = sext i32 %77 to i64
  %80 = getelementptr inbounds i8, ptr %76, i64 %79
  %81 = load i8, ptr %80, align 1, !tbaa !13
  %82 = zext i8 %81 to i32
  %83 = load i16, ptr %11, align 2, !tbaa !45
  %84 = zext i16 %83 to i32
  %85 = and i32 %84, 63
  %86 = add nsw i32 128, %85
  %87 = icmp ne i32 %82, %86
  br i1 %87, label %88, label %89

88:                                               ; preds = %75
  store i32 -1, ptr %5, align 4
  store i32 1, ptr %12, align 4
  br label %253

89:                                               ; preds = %75
  br label %247

90:                                               ; preds = %51
  %91 = load i16, ptr %11, align 2, !tbaa !45
  %92 = zext i16 %91 to i32
  %93 = icmp sge i32 %92, 55296
  br i1 %93, label %94, label %186

94:                                               ; preds = %90
  %95 = load i16, ptr %11, align 2, !tbaa !45
  %96 = zext i16 %95 to i32
  %97 = icmp slt i32 %96, 56320
  br i1 %97, label %98, label %186

98:                                               ; preds = %94
  call void @llvm.lifetime.start.p0(i64 4, ptr %13) #8
  call void @llvm.lifetime.start.p0(i64 2, ptr %14) #8
  %99 = load ptr, ptr %8, align 8, !tbaa !25
  %100 = getelementptr inbounds i8, ptr %99, i64 2
  %101 = load i8, ptr %100, align 1, !tbaa !13
  %102 = zext i8 %101 to i32
  %103 = mul nsw i32 %102, 256
  %104 = load ptr, ptr %8, align 8, !tbaa !25
  %105 = getelementptr inbounds i8, ptr %104, i64 3
  %106 = load i8, ptr %105, align 1, !tbaa !13
  %107 = zext i8 %106 to i32
  %108 = add nsw i32 %103, %107
  %109 = trunc i32 %108 to i16
  store i16 %109, ptr %14, align 2, !tbaa !45
  %110 = load i32, ptr %10, align 4, !tbaa !14
  %111 = add nsw i32 %110, 3
  %112 = load i32, ptr %7, align 4, !tbaa !14
  %113 = icmp sge i32 %111, %112
  br i1 %113, label %114, label %115

114:                                              ; preds = %98
  store i32 -1, ptr %5, align 4
  store i32 1, ptr %12, align 4
  br label %183

115:                                              ; preds = %98
  %116 = load i16, ptr %11, align 2, !tbaa !45
  %117 = zext i16 %116 to i32
  %118 = sub nsw i32 %117, 55296
  %119 = shl i32 %118, 10
  %120 = load i16, ptr %14, align 2, !tbaa !45
  %121 = zext i16 %120 to i32
  %122 = sub nsw i32 %121, 56320
  %123 = add nsw i32 %119, %122
  %124 = add nsw i32 %123, 65536
  store i32 %124, ptr %13, align 4, !tbaa !14
  %125 = load ptr, ptr %6, align 8, !tbaa !25
  %126 = load i32, ptr %10, align 4, !tbaa !14
  %127 = add nsw i32 %126, 1
  store i32 %127, ptr %10, align 4, !tbaa !14
  %128 = sext i32 %126 to i64
  %129 = getelementptr inbounds i8, ptr %125, i64 %128
  %130 = load i8, ptr %129, align 1, !tbaa !13
  %131 = zext i8 %130 to i32
  %132 = load i32, ptr %13, align 4, !tbaa !14
  %133 = lshr i32 %132, 18
  %134 = add i32 240, %133
  %135 = icmp ne i32 %131, %134
  br i1 %135, label %136, label %137

136:                                              ; preds = %115
  store i32 -1, ptr %5, align 4
  store i32 1, ptr %12, align 4
  br label %183

137:                                              ; preds = %115
  %138 = load ptr, ptr %6, align 8, !tbaa !25
  %139 = load i32, ptr %10, align 4, !tbaa !14
  %140 = add nsw i32 %139, 1
  store i32 %140, ptr %10, align 4, !tbaa !14
  %141 = sext i32 %139 to i64
  %142 = getelementptr inbounds i8, ptr %138, i64 %141
  %143 = load i8, ptr %142, align 1, !tbaa !13
  %144 = zext i8 %143 to i32
  %145 = load i32, ptr %13, align 4, !tbaa !14
  %146 = lshr i32 %145, 12
  %147 = and i32 %146, 63
  %148 = add i32 128, %147
  %149 = icmp ne i32 %144, %148
  br i1 %149, label %150, label %151

150:                                              ; preds = %137
  store i32 -1, ptr %5, align 4
  store i32 1, ptr %12, align 4
  br label %183

151:                                              ; preds = %137
  %152 = load ptr, ptr %6, align 8, !tbaa !25
  %153 = load i32, ptr %10, align 4, !tbaa !14
  %154 = add nsw i32 %153, 1
  store i32 %154, ptr %10, align 4, !tbaa !14
  %155 = sext i32 %153 to i64
  %156 = getelementptr inbounds i8, ptr %152, i64 %155
  %157 = load i8, ptr %156, align 1, !tbaa !13
  %158 = zext i8 %157 to i32
  %159 = load i32, ptr %13, align 4, !tbaa !14
  %160 = lshr i32 %159, 6
  %161 = and i32 %160, 63
  %162 = add i32 128, %161
  %163 = icmp ne i32 %158, %162
  br i1 %163, label %164, label %165

164:                                              ; preds = %151
  store i32 -1, ptr %5, align 4
  store i32 1, ptr %12, align 4
  br label %183

165:                                              ; preds = %151
  %166 = load ptr, ptr %6, align 8, !tbaa !25
  %167 = load i32, ptr %10, align 4, !tbaa !14
  %168 = add nsw i32 %167, 1
  store i32 %168, ptr %10, align 4, !tbaa !14
  %169 = sext i32 %167 to i64
  %170 = getelementptr inbounds i8, ptr %166, i64 %169
  %171 = load i8, ptr %170, align 1, !tbaa !13
  %172 = zext i8 %171 to i32
  %173 = load i32, ptr %13, align 4, !tbaa !14
  %174 = and i32 %173, 63
  %175 = add i32 128, %174
  %176 = icmp ne i32 %172, %175
  br i1 %176, label %177, label %178

177:                                              ; preds = %165
  store i32 -1, ptr %5, align 4
  store i32 1, ptr %12, align 4
  br label %183

178:                                              ; preds = %165
  %179 = load ptr, ptr %8, align 8, !tbaa !25
  %180 = getelementptr inbounds i8, ptr %179, i64 2
  store ptr %180, ptr %8, align 8, !tbaa !25
  %181 = load i32, ptr %9, align 4, !tbaa !14
  %182 = sub nsw i32 %181, 2
  store i32 %182, ptr %9, align 4, !tbaa !14
  store i32 0, ptr %12, align 4
  br label %183

183:                                              ; preds = %178, %177, %164, %150, %136, %114
  call void @llvm.lifetime.end.p0(i64 2, ptr %14) #8
  call void @llvm.lifetime.end.p0(i64 4, ptr %13) #8
  %184 = load i32, ptr %12, align 4
  switch i32 %184, label %253 [
    i32 0, label %185
  ]

185:                                              ; preds = %183
  br label %246

186:                                              ; preds = %94, %90
  %187 = load i16, ptr %11, align 2, !tbaa !45
  %188 = zext i16 %187 to i32
  %189 = icmp sge i32 %188, 56320
  br i1 %189, label %190, label %195

190:                                              ; preds = %186
  %191 = load i16, ptr %11, align 2, !tbaa !45
  %192 = zext i16 %191 to i32
  %193 = icmp slt i32 %192, 57344
  br i1 %193, label %194, label %195

194:                                              ; preds = %190
  store i32 -1, ptr %5, align 4
  store i32 1, ptr %12, align 4
  br label %253

195:                                              ; preds = %190, %186
  %196 = load i32, ptr %10, align 4, !tbaa !14
  %197 = add nsw i32 %196, 2
  %198 = load i32, ptr %7, align 4, !tbaa !14
  %199 = icmp sge i32 %197, %198
  br i1 %199, label %200, label %201

200:                                              ; preds = %195
  store i32 -1, ptr %5, align 4
  store i32 1, ptr %12, align 4
  br label %253

201:                                              ; preds = %195
  %202 = load ptr, ptr %6, align 8, !tbaa !25
  %203 = load i32, ptr %10, align 4, !tbaa !14
  %204 = add nsw i32 %203, 1
  store i32 %204, ptr %10, align 4, !tbaa !14
  %205 = sext i32 %203 to i64
  %206 = getelementptr inbounds i8, ptr %202, i64 %205
  %207 = load i8, ptr %206, align 1, !tbaa !13
  %208 = zext i8 %207 to i32
  %209 = load i16, ptr %11, align 2, !tbaa !45
  %210 = zext i16 %209 to i32
  %211 = ashr i32 %210, 12
  %212 = add nsw i32 224, %211
  %213 = icmp ne i32 %208, %212
  br i1 %213, label %214, label %215

214:                                              ; preds = %201
  store i32 -1, ptr %5, align 4
  store i32 1, ptr %12, align 4
  br label %253

215:                                              ; preds = %201
  %216 = load ptr, ptr %6, align 8, !tbaa !25
  %217 = load i32, ptr %10, align 4, !tbaa !14
  %218 = add nsw i32 %217, 1
  store i32 %218, ptr %10, align 4, !tbaa !14
  %219 = sext i32 %217 to i64
  %220 = getelementptr inbounds i8, ptr %216, i64 %219
  %221 = load i8, ptr %220, align 1, !tbaa !13
  %222 = zext i8 %221 to i32
  %223 = load i16, ptr %11, align 2, !tbaa !45
  %224 = zext i16 %223 to i32
  %225 = ashr i32 %224, 6
  %226 = and i32 %225, 63
  %227 = add nsw i32 128, %226
  %228 = icmp ne i32 %222, %227
  br i1 %228, label %229, label %230

229:                                              ; preds = %215
  store i32 -1, ptr %5, align 4
  store i32 1, ptr %12, align 4
  br label %253

230:                                              ; preds = %215
  %231 = load ptr, ptr %6, align 8, !tbaa !25
  %232 = load i32, ptr %10, align 4, !tbaa !14
  %233 = add nsw i32 %232, 1
  store i32 %233, ptr %10, align 4, !tbaa !14
  %234 = sext i32 %232 to i64
  %235 = getelementptr inbounds i8, ptr %231, i64 %234
  %236 = load i8, ptr %235, align 1, !tbaa !13
  %237 = zext i8 %236 to i32
  %238 = load i16, ptr %11, align 2, !tbaa !45
  %239 = zext i16 %238 to i32
  %240 = and i32 %239, 63
  %241 = add nsw i32 128, %240
  %242 = icmp ne i32 %237, %241
  br i1 %242, label %243, label %244

243:                                              ; preds = %230
  store i32 -1, ptr %5, align 4
  store i32 1, ptr %12, align 4
  br label %253

244:                                              ; preds = %230
  br label %245

245:                                              ; preds = %244
  br label %246

246:                                              ; preds = %245, %185
  br label %247

247:                                              ; preds = %246, %89
  br label %248

248:                                              ; preds = %247, %50
  %249 = load ptr, ptr %8, align 8, !tbaa !25
  %250 = getelementptr inbounds i8, ptr %249, i64 2
  store ptr %250, ptr %8, align 8, !tbaa !25
  %251 = load i32, ptr %9, align 4, !tbaa !14
  %252 = sub nsw i32 %251, 2
  store i32 %252, ptr %9, align 4, !tbaa !14
  store i32 0, ptr %12, align 4
  br label %253

253:                                              ; preds = %248, %243, %229, %214, %200, %194, %183, %88, %74, %60, %49, %37
  call void @llvm.lifetime.end.p0(i64 2, ptr %11) #8
  %254 = load i32, ptr %12, align 4
  switch i32 %254, label %258 [
    i32 0, label %255
  ]

255:                                              ; preds = %253
  br label %15, !llvm.loop !259

256:                                              ; preds = %15
  %257 = load i32, ptr %10, align 4, !tbaa !14
  store i32 %257, ptr %5, align 4
  store i32 1, ptr %12, align 4
  br label %258

258:                                              ; preds = %256, %253
  call void @llvm.lifetime.end.p0(i64 4, ptr %10) #8
  %259 = load i32, ptr %5, align 4
  ret i32 %259
}